; ModuleID = '15/2086.c'
source_filename = "15/2086.c"
target datalayout = "e-m:e-p270:32:32-p271:32:32-p272:64:64-i64:64-f80:128-n8:16:32:64-S128"
target triple = "x86_64-pc-linux-gnu"

@.str = private unnamed_addr constant [3 x i8] c"%d\00", align 1
@.str.1 = private unnamed_addr constant [4 x i8] c"%d\0A\00", align 1

; Function Attrs: noinline nounwind uwtable
define dso_local void @main() #0 {
  %1 = alloca i32, align 4
  %2 = alloca i32, align 4
  %3 = alloca i32, align 4
  %4 = alloca i32, align 4
  %5 = alloca i32, align 4
  %6 = alloca i32, align 4
  %7 = alloca i32, align 4
  store i32 0, i32* %6, align 4
  store i32 0, i32* %7, align 4
  %8 = call i32 (i8*, ...) @__isoc99_scanf(i8* getelementptr inbounds ([3 x i8], [3 x i8]* @.str, i64 0, i64 0), i32* %4)
  %9 = load i32, i32* %4, align 4
  %10 = load i32, i32* %4, align 4
  %11 = mul nsw i32 %9, %10
  store i32 %11, i32* %5, align 4
  store i32 255, i32* %2, align 4
  store i32 1, i32* %1, align 4
  br label %12

12:                                               ; preds = %34, %0
  %13 = load i32, i32* %1, align 4
  %14 = load i32, i32* %5, align 4
  %15 = icmp sle i32 %13, %14
  br i1 %15, label %16, label %37

16:                                               ; preds = %12
  %17 = load i32, i32* %2, align 4
  store i32 %17, i32* %3, align 4
  %18 = call i32 (i8*, ...) @__isoc99_scanf(i8* getelementptr inbounds ([3 x i8], [3 x i8]* @.str, i64 0, i64 0), i32* %2)
  %19 = load i32, i32* %2, align 4
  %20 = icmp eq i32 %19, 0
  br i1 %20, label %21, label %27

21:                                               ; preds = %16
  %22 = load i32, i32* %3, align 4
  %23 = icmp eq i32 %22, 0
  br i1 %23, label %24, label %27

24:                                               ; preds = %21
  %25 = load i32, i32* %6, align 4
  %26 = add nsw i32 %25, 1
  store i32 %26, i32* %6, align 4
  br label %27

27:                                               ; preds = %24, %21, %16
  %28 = load i32, i32* %2, align 4
  %29 = icmp eq i32 %28, 0
  br i1 %29, label %30, label %33

30:                                               ; preds = %27
  %31 = load i32, i32* %7, align 4
  %32 = add nsw i32 %31, 1
  store i32 %32, i32* %7, align 4
  br label %33

33:                                               ; preds = %30, %27
  br label %34

34:                                               ; preds = %33
  %35 = load i32, i32* %1, align 4
  %36 = add nsw i32 %35, 1
  store i32 %36, i32* %1, align 4
  br label %12

37:                                               ; preds = %12
  %38 = load i32, i32* %7, align 4
  %39 = load i32, i32* %6, align 4
  %40 = sub nsw i32 %38, %39
  %41 = sub nsw i32 %40, 2
  %42 = sdiv i32 %41, 2
  store i32 %42, i32* %7, align 4
  %43 = load i32, i32* %6, align 4
  %44 = sdiv i32 %43, 2
  %45 = sub nsw i32 %44, 1
  store i32 %45, i32* %6, align 4
  %46 = load i32, i32* %6, align 4
  %47 = load i32, i32* %7, align 4
  %48 = mul nsw i32 %46, %47
  store i32 %48, i32* %6, align 4
  %49 = load i32, i32* %6, align 4
  %50 = call i32 (i8*, ...) @printf(i8* getelementptr inbounds ([4 x i8], [4 x i8]* @.str.1, i64 0, i64 0), i32 %49)
  ret void
}

declare dso_local i32 @__isoc99_scanf(i8*, ...) #1

declare dso_local i32 @printf(i8*, ...) #1


!llvm.module.flags = !{!0}
!llvm.ident = !{!1}

!0 = !{i32 1, !"wchar_size", i32 4}
!1 = !{!"clang version 10.0.0-4ubuntu1 "}
